; Function Attrs: mustprogress uwtable
define void @cvRepeat(ptr noundef %0, ptr noundef %1) local_unnamed_addr #5 personality ptr @__gxx_personality_v0 {
  %3 = alloca %"class.cv::Mat", align 8
  %4 = alloca %"class.cv::Mat", align 8
  %5 = alloca %"class.std::__cxx11::basic_string", align 8
  %6 = alloca %"class.std::allocator", align 1
  %7 = alloca %"class.cv::_InputArray", align 8
  %8 = alloca %"class.cv::_OutputArray", align 8
  call void @_ZN2cv10cvarrToMatEPKvbbiPNS_10AutoBufferIdLm136EEE(ptr dead_on_unwind nonnull writable sret(%"class.cv::Mat") align 8 %3, ptr noundef %0, i1 noundef zeroext false, i1 noundef zeroext true, i32 noundef 0, ptr noundef null)
  invoke void @_ZN2cv10cvarrToMatEPKvbbiPNS_10AutoBufferIdLm136EEE(ptr dead_on_unwind nonnull writable sret(%"class.cv::Mat") align 8 %4, ptr noundef %1, i1 noundef zeroext false, i1 noundef zeroext true, i32 noundef 0, ptr noundef null)
          to label %9 unwind label %31

9:                                                ; preds = %2
  %10 = load i32, ptr %3, align 8
  %11 = load i32, ptr %4, align 8
  %12 = xor i32 %11, %10
  %13 = and i32 %12, 4095
  %14 = icmp eq i32 %13, 0
  br i1 %14, label %15, label %33

15:                                               ; preds = %9
  %16 = getelementptr inbounds i8, ptr %4, i64 8
  %17 = load i32, ptr %16, align 8
  %18 = getelementptr inbounds i8, ptr %3, i64 8
  %19 = load i32, ptr %18, align 8
  %20 = srem i32 %17, %19
  %21 = sdiv i32 %17, %19
  %22 = icmp eq i32 %20, 0
  br i1 %22, label %23, label %33

23:                                               ; preds = %15
  %24 = getelementptr inbounds i8, ptr %4, i64 12
  %25 = load i32, ptr %24, align 4
  %26 = getelementptr inbounds i8, ptr %3, i64 12
  %27 = load i32, ptr %26, align 4
  %28 = srem i32 %25, %27
  %29 = sdiv i32 %25, %27
  %30 = icmp eq i32 %28, 0
  br i1 %30, label %41, label %33

31:                                               ; preds = %2
  %32 = landingpad { ptr, i32 }
          cleanup
  br label %51

33:                                               ; preds = %23, %15, %9
  call void @_ZNSaIcEC1Ev(ptr noundef nonnull align 1 dereferenceable(1) %6) #17
  invoke void @_ZNSt7__cxx1112basic_stringIcSt11char_traitsIcESaIcEEC1EPKcRKS3_(ptr noundef nonnull align 8 dereferenceable(32) %5, ptr noundef nonnull @.str.34, ptr noundef nonnull align 1 dereferenceable(1) %6)
          to label %34 unwind label %36

34:                                               ; preds = %33
  invoke void @_ZN2cv5errorEiRKNSt7__cxx1112basic_stringIcSt11char_traitsIcESaIcEEEPKcS9_i(i32 noundef -215, ptr noundef nonnull align 8 dereferenceable(32) %5, ptr noundef nonnull @__func__.cvRepeat, ptr noundef nonnull @.str.1, i32 noundef 1198) #18
          to label %35 unwind label %38

35:                                               ; preds = %34
  unreachable

36:                                               ; preds = %33
  %37 = landingpad { ptr, i32 }
          cleanup
  br label %40

38:                                               ; preds = %34
  %39 = landingpad { ptr, i32 }
          cleanup
  call void @_ZNSt7__cxx1112basic_stringIcSt11char_traitsIcESaIcEED1Ev(ptr noundef nonnull align 8 dereferenceable(32) %5) #17
  br label %40

40:                                               ; preds = %38, %36
  %.pn = phi { ptr, i32 } [ %39, %38 ], [ %37, %36 ]
  call void @_ZNSaIcED1Ev(ptr noundef nonnull align 1 dereferenceable(1) %6) #17
  br label %50

41:                                               ; preds = %23
  %42 = getelementptr inbounds i8, ptr %7, i64 16
  store i32 0, ptr %42, align 8
  %43 = getelementptr inbounds i8, ptr %7, i64 20
  store i32 0, ptr %43, align 4
  store i32 16842752, ptr %7, align 8
  %44 = getelementptr inbounds i8, ptr %7, i64 8
  store ptr %3, ptr %44, align 8
  %45 = getelementptr inbounds i8, ptr %8, i64 8
  %46 = getelementptr inbounds i8, ptr %8, i64 16
  store i64 0, ptr %46, align 8
  store i32 33619968, ptr %8, align 8
  store ptr %4, ptr %45, align 8
  invoke void @_ZN2cv6repeatERKNS_11_InputArrayEiiRKNS_12_OutputArrayE(ptr noundef nonnull align 8 dereferenceable(24) %7, i32 noundef %21, i32 noundef %29, ptr noundef nonnull align 8 dereferenceable(24) %8)
          to label %47 unwind label %48

47:                                               ; preds = %41
  call void @_ZN2cv3MatD1Ev(ptr noundef nonnull align 8 dereferenceable(96) %4) #17
  call void @_ZN2cv3MatD1Ev(ptr noundef nonnull align 8 dereferenceable(96) %3) #17
  ret void

48:                                               ; preds = %41
  %49 = landingpad { ptr, i32 }
          cleanup
  br label %50

50:                                               ; preds = %48, %40
  %.pn8.pn = phi { ptr, i32 } [ %.pn, %40 ], [ %49, %48 ]
  call void @_ZN2cv3MatD1Ev(ptr noundef nonnull align 8 dereferenceable(96) %4) #17
  br label %51

51:                                               ; preds = %50, %31
  %.pn8.pn.pn = phi { ptr, i32 } [ %.pn8.pn, %50 ], [ %32, %31 ]
  call void @_ZN2cv3MatD1Ev(ptr noundef nonnull align 8 dereferenceable(96) %3) #17
  resume { ptr, i32 } %.pn8.pn.pn
}